; Function Attrs: nofree norecurse nosync nounwind memory(argmem: read) uwtable
define zeroext i1 @lv_textarea_get_password_mode(ptr noundef readonly captures(address_is_null) %0) local_unnamed_addr #3 {
  %.not = icmp eq ptr %0, null
  br i1 %.not, label %.preheader, label %2

.preheader:                                       ; preds = %1, %.preheader
  br label %.preheader

2:                                                ; preds = %1
  %3 = getelementptr inbounds nuw i8, ptr %0, i64 152
  %4 = load i8, ptr %3, align 8
  %5 = and i8 %4, 4
  %6 = icmp ne i8 %5, 0
  ret i1 %6
}